   1               		.file	"radioctl.c"
   2               	__SP_H__ = 0x3e
   3               	__SP_L__ = 0x3d
   4               	__SREG__ = 0x3f
   5               	__tmp_reg__ = 0
   6               	__zero_reg__ = 1
   7               		.text
   8               	.Ltext0:
   9               		.cfi_sections	.debug_frame
  10               		.section	.text.openPort,"ax",@progbits
  11               	.global	openPort
  13               	openPort:
  14               	.LFB11:
  15               		.file 1 "../../lib/radio_control/radioctl.c"
   1:../../lib/radio_control/radioctl.c **** #include "radioctl.h"
   2:../../lib/radio_control/radioctl.c **** #include "../spi/spi.h"
   3:../../lib/radio_control/radioctl.c **** 
   4:../../lib/radio_control/radioctl.c **** /*************** PORT OPERATIONS ****************/
   5:../../lib/radio_control/radioctl.c **** 
   6:../../lib/radio_control/radioctl.c **** void openPort(){
  16               		.loc 1 6 0
  17               		.cfi_startproc
  18               	/* prologue: function */
  19               	/* frame size = 0 */
  20               	/* stack size = 0 */
  21               	.L__stack_usage = 0
   7:../../lib/radio_control/radioctl.c **** 
   8:../../lib/radio_control/radioctl.c ****   CSN_LOW;
  22               		.loc 1 8 0
  23 0000 8C98      		cbi 0x11,4
  24 0002 0895      		ret
  25               		.cfi_endproc
  26               	.LFE11:
  28               		.section	.text.closePort,"ax",@progbits
  29               	.global	closePort
  31               	closePort:
  32               	.LFB12:
   9:../../lib/radio_control/radioctl.c **** }
  10:../../lib/radio_control/radioctl.c **** 
  11:../../lib/radio_control/radioctl.c **** void closePort(){ 
  33               		.loc 1 11 0
  34               		.cfi_startproc
  35               	/* prologue: function */
  36               	/* frame size = 0 */
  37               	/* stack size = 0 */
  38               	.L__stack_usage = 0
  12:../../lib/radio_control/radioctl.c **** 
  13:../../lib/radio_control/radioctl.c ****   CSN_HIGH;        // sets port high
  39               		.loc 1 13 0
  40 0000 8C9A      		sbi 0x11,4
  41               	.L4:
  14:../../lib/radio_control/radioctl.c ****   while(!(CSN_PIN_R &= (1<<CSN_PIN)));    //while port is low
  42               		.loc 1 14 0 discriminator 1
  43 0002 8FB1      		in r24,0xf
  44 0004 8071      		andi r24,lo8(16)
  45 0006 8FB9      		out 0xf,r24
  46 0008 8823      		tst r24
  47 000a 01F0      		breq .L4
  48               	/* epilogue start */
  15:../../lib/radio_control/radioctl.c **** 
  16:../../lib/radio_control/radioctl.c **** }
  49               		.loc 1 16 0
  50 000c 0895      		ret
  51               		.cfi_endproc
  52               	.LFE12:
  54               		.section	.text.initRadioTX,"ax",@progbits
  55               	.global	initRadioTX
  57               	initRadioTX:
  58               	.LFB13:
  17:../../lib/radio_control/radioctl.c **** 
  18:../../lib/radio_control/radioctl.c **** /*************** Radio Functions ******************/
  19:../../lib/radio_control/radioctl.c **** 
  20:../../lib/radio_control/radioctl.c **** void initRadioTX(){
  59               		.loc 1 20 0
  60               		.cfi_startproc
  61               	/* prologue: function */
  62               	/* frame size = 0 */
  63               	/* stack size = 0 */
  64               	.L__stack_usage = 0
  21:../../lib/radio_control/radioctl.c **** 
  22:../../lib/radio_control/radioctl.c ****   openPort();
  65               		.loc 1 22 0
  66 0000 0E94 0000 		call openPort
  67               	.LVL0:
  23:../../lib/radio_control/radioctl.c ****   SPI_masterTransmit(0b00100000);
  68               		.loc 1 23 0
  69 0004 80E2      		ldi r24,lo8(32)
  70 0006 0E94 0000 		call SPI_masterTransmit
  71               	.LVL1:
  24:../../lib/radio_control/radioctl.c ****   SPI_masterTransmit(0b00001010);  // sets TX mode on 
  72               		.loc 1 24 0
  73 000a 8AE0      		ldi r24,lo8(10)
  74 000c 0E94 0000 		call SPI_masterTransmit
  75               	.LVL2:
  25:../../lib/radio_control/radioctl.c ****   closePort();
  76               		.loc 1 25 0
  77 0010 0C94 0000 		jmp closePort
  78               	.LVL3:
  79               		.cfi_endproc
  80               	.LFE13:
  82               		.section	.text.initRadioRX,"ax",@progbits
  83               	.global	initRadioRX
  85               	initRadioRX:
  86               	.LFB14:
  26:../../lib/radio_control/radioctl.c **** }
  27:../../lib/radio_control/radioctl.c **** 
  28:../../lib/radio_control/radioctl.c **** void initRadioRX(){
  87               		.loc 1 28 0
  88               		.cfi_startproc
  89               	/* prologue: function */
  90               	/* frame size = 0 */
  91               	/* stack size = 0 */
  92               	.L__stack_usage = 0
  29:../../lib/radio_control/radioctl.c **** 
  30:../../lib/radio_control/radioctl.c ****   openPort(); 
  93               		.loc 1 30 0
  94 0000 0E94 0000 		call openPort
  95               	.LVL4:
  31:../../lib/radio_control/radioctl.c ****   SPI_masterTransmit(0b00100000);
  96               		.loc 1 31 0
  97 0004 80E2      		ldi r24,lo8(32)
  98 0006 0E94 0000 		call SPI_masterTransmit
  99               	.LVL5:
  32:../../lib/radio_control/radioctl.c ****   SPI_masterTransmit(0b00001011);  // sets RX mode on 
 100               		.loc 1 32 0
 101 000a 8BE0      		ldi r24,lo8(11)
 102 000c 0E94 0000 		call SPI_masterTransmit
 103               	.LVL6:
  33:../../lib/radio_control/radioctl.c ****   closePort();
 104               		.loc 1 33 0
 105 0010 0C94 0000 		jmp closePort
 106               	.LVL7:
 107               		.cfi_endproc
 108               	.LFE14:
 110               		.section	.text.sleepRadio,"ax",@progbits
 111               	.global	sleepRadio
 113               	sleepRadio:
 114               	.LFB15:
  34:../../lib/radio_control/radioctl.c **** }
  35:../../lib/radio_control/radioctl.c **** 
  36:../../lib/radio_control/radioctl.c **** void sleepRadio(){
 115               		.loc 1 36 0
 116               		.cfi_startproc
 117               	/* prologue: function */
 118               	/* frame size = 0 */
 119               	/* stack size = 0 */
 120               	.L__stack_usage = 0
  37:../../lib/radio_control/radioctl.c **** 
  38:../../lib/radio_control/radioctl.c ****   openPort();
 121               		.loc 1 38 0
 122 0000 0E94 0000 		call openPort
 123               	.LVL8:
  39:../../lib/radio_control/radioctl.c ****   SPI_masterTransmit(0b00100000); 
 124               		.loc 1 39 0
 125 0004 80E2      		ldi r24,lo8(32)
 126 0006 0E94 0000 		call SPI_masterTransmit
 127               	.LVL9:
  40:../../lib/radio_control/radioctl.c ****   SPI_masterTransmit(0b00000000);
 128               		.loc 1 40 0
 129 000a 80E0      		ldi r24,0
 130 000c 0E94 0000 		call SPI_masterTransmit
 131               	.LVL10:
  41:../../lib/radio_control/radioctl.c ****   closePort();
 132               		.loc 1 41 0
 133 0010 0C94 0000 		jmp closePort
 134               	.LVL11:
 135               		.cfi_endproc
 136               	.LFE15:
 138               		.section	.text.activateFeatures,"ax",@progbits
 139               	.global	activateFeatures
 141               	activateFeatures:
 142               	.LFB16:
  42:../../lib/radio_control/radioctl.c **** }
  43:../../lib/radio_control/radioctl.c **** 
  44:../../lib/radio_control/radioctl.c **** /***********************************************************
  45:../../lib/radio_control/radioctl.c ****   This function activates the following features
  46:../../lib/radio_control/radioctl.c ****   -R_RX_PL_WID
  47:../../lib/radio_control/radioctl.c ****   -W_ACK_PAYLOAD
  48:../../lib/radio_control/radioctl.c ****   -W_TX_PAYLOAD_NOACK
  49:../../lib/radio_control/radioctl.c ****   If not used, writing to these registers has no effect
  50:../../lib/radio_control/radioctl.c ****  *************************************************************/
  51:../../lib/radio_control/radioctl.c **** 
  52:../../lib/radio_control/radioctl.c **** void activateFeatures(){
 143               		.loc 1 52 0
 144               		.cfi_startproc
 145               	/* prologue: function */
 146               	/* frame size = 0 */
 147               	/* stack size = 0 */
 148               	.L__stack_usage = 0
  53:../../lib/radio_control/radioctl.c **** 
  54:../../lib/radio_control/radioctl.c ****   openPort();
 149               		.loc 1 54 0
 150 0000 0E94 0000 		call openPort
 151               	.LVL12:
  55:../../lib/radio_control/radioctl.c ****   SPI_masterTransmit(0b01010000);
 152               		.loc 1 55 0
 153 0004 80E5      		ldi r24,lo8(80)
 154 0006 0E94 0000 		call SPI_masterTransmit
 155               	.LVL13:
  56:../../lib/radio_control/radioctl.c ****   SPI_masterTransmit(0x73);
 156               		.loc 1 56 0
 157 000a 83E7      		ldi r24,lo8(115)
 158 000c 0E94 0000 		call SPI_masterTransmit
 159               	.LVL14:
  57:../../lib/radio_control/radioctl.c ****   closePort();
 160               		.loc 1 57 0
 161 0010 0C94 0000 		jmp closePort
 162               	.LVL15:
 163               		.cfi_endproc
 164               	.LFE16:
 166               		.section	.text.setRadioAddressWidth,"ax",@progbits
 167               	.global	setRadioAddressWidth
 169               	setRadioAddressWidth:
 170               	.LFB17:
  58:../../lib/radio_control/radioctl.c **** }
  59:../../lib/radio_control/radioctl.c **** 
  60:../../lib/radio_control/radioctl.c **** /*************************************************************/
  61:../../lib/radio_control/radioctl.c **** 
  62:../../lib/radio_control/radioctl.c **** void setRadioAddressWidth(uint8_t width){
 171               		.loc 1 62 0
 172               		.cfi_startproc
 173               	.LVL16:
 174 0000 CF93      		push r28
 175               	.LCFI0:
 176               		.cfi_def_cfa_offset 3
 177               		.cfi_offset 28, -2
 178               	/* prologue: function */
 179               	/* frame size = 0 */
 180               	/* stack size = 1 */
 181               	.L__stack_usage = 1
 182 0002 C82F      		mov r28,r24
  63:../../lib/radio_control/radioctl.c **** 
  64:../../lib/radio_control/radioctl.c ****   openPort();
 183               		.loc 1 64 0
 184 0004 0E94 0000 		call openPort
 185               	.LVL17:
  65:../../lib/radio_control/radioctl.c ****   SPI_masterTransmit(0b00100011);  // setup_aw register
 186               		.loc 1 65 0
 187 0008 83E2      		ldi r24,lo8(35)
 188 000a 0E94 0000 		call SPI_masterTransmit
 189               	.LVL18:
  66:../../lib/radio_control/radioctl.c ****   SPI_masterTransmit(width);  // sets address 
 190               		.loc 1 66 0
 191 000e 8C2F      		mov r24,r28
 192 0010 0E94 0000 		call SPI_masterTransmit
 193               	.LVL19:
 194               	/* epilogue start */
  67:../../lib/radio_control/radioctl.c ****   closePort();
  68:../../lib/radio_control/radioctl.c **** }
 195               		.loc 1 68 0
 196 0014 CF91      		pop r28
 197               	.LVL20:
  67:../../lib/radio_control/radioctl.c ****   closePort();
 198               		.loc 1 67 0
 199 0016 0C94 0000 		jmp closePort
 200               	.LVL21:
 201               		.cfi_endproc
 202               	.LFE17:
 204               		.section	.text.setRadioFrequency,"ax",@progbits
 205               	.global	setRadioFrequency
 207               	setRadioFrequency:
 208               	.LFB18:
  69:../../lib/radio_control/radioctl.c **** 
  70:../../lib/radio_control/radioctl.c **** void setRadioFrequency(uint8_t frequency){
 209               		.loc 1 70 0
 210               		.cfi_startproc
 211               	.LVL22:
 212 0000 CF93      		push r28
 213               	.LCFI1:
 214               		.cfi_def_cfa_offset 3
 215               		.cfi_offset 28, -2
 216               	/* prologue: function */
 217               	/* frame size = 0 */
 218               	/* stack size = 1 */
 219               	.L__stack_usage = 1
 220 0002 C82F      		mov r28,r24
  71:../../lib/radio_control/radioctl.c **** 
  72:../../lib/radio_control/radioctl.c ****   openPort();
 221               		.loc 1 72 0
 222 0004 0E94 0000 		call openPort
 223               	.LVL23:
  73:../../lib/radio_control/radioctl.c ****   SPI_masterTransmit(0b00100101);  // addresses radio frequency register 
 224               		.loc 1 73 0
 225 0008 85E2      		ldi r24,lo8(37)
 226 000a 0E94 0000 		call SPI_masterTransmit
 227               	.LVL24:
  74:../../lib/radio_control/radioctl.c ****   SPI_masterTransmit(frequency);  // sets frequency 
 228               		.loc 1 74 0
 229 000e 8C2F      		mov r24,r28
 230 0010 0E94 0000 		call SPI_masterTransmit
 231               	.LVL25:
 232               	/* epilogue start */
  75:../../lib/radio_control/radioctl.c ****   closePort(); 
  76:../../lib/radio_control/radioctl.c **** }
 233               		.loc 1 76 0
 234 0014 CF91      		pop r28
 235               	.LVL26:
  75:../../lib/radio_control/radioctl.c ****   closePort(); 
 236               		.loc 1 75 0
 237 0016 0C94 0000 		jmp closePort
 238               	.LVL27:
 239               		.cfi_endproc
 240               	.LFE18:
 242               		.section	.text.setRadioTXAddress,"ax",@progbits
 243               	.global	setRadioTXAddress
 245               	setRadioTXAddress:
 246               	.LFB19:
  77:../../lib/radio_control/radioctl.c **** 
  78:../../lib/radio_control/radioctl.c **** void setRadioTXAddress(uint32_t address){
 247               		.loc 1 78 0
 248               		.cfi_startproc
 249               	.LVL28:
 250 0000 CF93      		push r28
 251               	.LCFI2:
 252               		.cfi_def_cfa_offset 3
 253               		.cfi_offset 28, -2
 254 0002 DF93      		push r29
 255               	.LCFI3:
 256               		.cfi_def_cfa_offset 4
 257               		.cfi_offset 29, -3
 258 0004 00D0      		rcall .
 259               	.LCFI4:
 260               		.cfi_def_cfa_offset 6
 261 0006 CDB7      		in r28,__SP_L__
 262 0008 DEB7      		in r29,__SP_H__
 263               	.LCFI5:
 264               		.cfi_def_cfa_register 28
 265               	/* prologue: function */
 266               	/* frame size = 2 */
 267               	/* stack size = 4 */
 268               	.L__stack_usage = 4
 269               	.LVL29:
  79:../../lib/radio_control/radioctl.c **** 
  80:../../lib/radio_control/radioctl.c ****   uint8_t addLow = address;
  81:../../lib/radio_control/radioctl.c ****   uint8_t addMid = (address >> 8);
  82:../../lib/radio_control/radioctl.c ****   uint8_t addHigh = (addMid >> 8);
  83:../../lib/radio_control/radioctl.c **** 
  84:../../lib/radio_control/radioctl.c ****   openPort();
 270               		.loc 1 84 0
 271 000a 6983      		std Y+1,r22
 272 000c 7A83      		std Y+2,r23
 273 000e 0E94 0000 		call openPort
 274               	.LVL30:
  85:../../lib/radio_control/radioctl.c ****   SPI_masterTransmit(0x30);  // TX_ADDR register
 275               		.loc 1 85 0
 276 0012 80E3      		ldi r24,lo8(48)
 277 0014 0E94 0000 		call SPI_masterTransmit
 278               	.LVL31:
  86:../../lib/radio_control/radioctl.c ****   SPI_masterTransmit(addLow);  // receive address for data pipe 0
 279               		.loc 1 86 0
 280 0018 6981      		ldd r22,Y+1
 281 001a 862F      		mov r24,r22
 282 001c 0E94 0000 		call SPI_masterTransmit
 283               	.LVL32:
  87:../../lib/radio_control/radioctl.c ****   SPI_masterTransmit(addMid); 
 284               		.loc 1 87 0
 285 0020 7A81      		ldd r23,Y+2
 286 0022 872F      		mov r24,r23
 287 0024 0E94 0000 		call SPI_masterTransmit
 288               	.LVL33:
  88:../../lib/radio_control/radioctl.c ****   SPI_masterTransmit(addHigh); 
 289               		.loc 1 88 0
 290 0028 80E0      		ldi r24,0
 291 002a 0E94 0000 		call SPI_masterTransmit
 292               	.LVL34:
 293               	/* epilogue start */
  89:../../lib/radio_control/radioctl.c **** 
  90:../../lib/radio_control/radioctl.c ****   closePort();
  91:../../lib/radio_control/radioctl.c **** }
 294               		.loc 1 91 0
 295 002e 0F90      		pop __tmp_reg__
 296 0030 0F90      		pop __tmp_reg__
 297 0032 DF91      		pop r29
 298 0034 CF91      		pop r28
  90:../../lib/radio_control/radioctl.c ****   closePort();
 299               		.loc 1 90 0
 300 0036 0C94 0000 		jmp closePort
 301               	.LVL35:
 302               		.cfi_endproc
 303               	.LFE19:
 305               		.section	.text.setRadioRXAddress,"ax",@progbits
 306               	.global	setRadioRXAddress
 308               	setRadioRXAddress:
 309               	.LFB20:
  92:../../lib/radio_control/radioctl.c **** 
  93:../../lib/radio_control/radioctl.c **** void setRadioRXAddress(int32_t address){
 310               		.loc 1 93 0
 311               		.cfi_startproc
 312               	.LVL36:
 313 0000 CF93      		push r28
 314               	.LCFI6:
 315               		.cfi_def_cfa_offset 3
 316               		.cfi_offset 28, -2
 317 0002 DF93      		push r29
 318               	.LCFI7:
 319               		.cfi_def_cfa_offset 4
 320               		.cfi_offset 29, -3
 321 0004 00D0      		rcall .
 322               	.LCFI8:
 323               		.cfi_def_cfa_offset 6
 324 0006 CDB7      		in r28,__SP_L__
 325 0008 DEB7      		in r29,__SP_H__
 326               	.LCFI9:
 327               		.cfi_def_cfa_register 28
 328               	/* prologue: function */
 329               	/* frame size = 2 */
 330               	/* stack size = 4 */
 331               	.L__stack_usage = 4
 332               	.LVL37:
  94:../../lib/radio_control/radioctl.c **** 
  95:../../lib/radio_control/radioctl.c ****   uint8_t addLow = address;
  96:../../lib/radio_control/radioctl.c ****   uint8_t addMid = (address >> 8);
  97:../../lib/radio_control/radioctl.c ****   uint8_t addHigh = (addMid >> 8);
  98:../../lib/radio_control/radioctl.c **** 
  99:../../lib/radio_control/radioctl.c ****   openPort();
 333               		.loc 1 99 0
 334 000a 6983      		std Y+1,r22
 335 000c 7A83      		std Y+2,r23
 336 000e 0E94 0000 		call openPort
 337               	.LVL38:
 100:../../lib/radio_control/radioctl.c ****   SPI_masterTransmit(0x2A);  // RX_ADDR_P0 register
 338               		.loc 1 100 0
 339 0012 8AE2      		ldi r24,lo8(42)
 340 0014 0E94 0000 		call SPI_masterTransmit
 341               	.LVL39:
 101:../../lib/radio_control/radioctl.c ****   SPI_masterTransmit(addLow);  // receive address for data pipe 0
 342               		.loc 1 101 0
 343 0018 6981      		ldd r22,Y+1
 344 001a 862F      		mov r24,r22
 345 001c 0E94 0000 		call SPI_masterTransmit
 346               	.LVL40:
 102:../../lib/radio_control/radioctl.c ****   SPI_masterTransmit(addMid); 
 347               		.loc 1 102 0
 348 0020 7A81      		ldd r23,Y+2
 349 0022 872F      		mov r24,r23
 350 0024 0E94 0000 		call SPI_masterTransmit
 351               	.LVL41:
 103:../../lib/radio_control/radioctl.c ****   SPI_masterTransmit(addHigh); 
 352               		.loc 1 103 0
 353 0028 80E0      		ldi r24,0
 354 002a 0E94 0000 		call SPI_masterTransmit
 355               	.LVL42:
 356               	/* epilogue start */
 104:../../lib/radio_control/radioctl.c **** 
 105:../../lib/radio_control/radioctl.c ****   closePort();
 106:../../lib/radio_control/radioctl.c **** }
 357               		.loc 1 106 0
 358 002e 0F90      		pop __tmp_reg__
 359 0030 0F90      		pop __tmp_reg__
 360 0032 DF91      		pop r29
 361 0034 CF91      		pop r28
 105:../../lib/radio_control/radioctl.c ****   closePort();
 362               		.loc 1 105 0
 363 0036 0C94 0000 		jmp closePort
 364               	.LVL43:
 365               		.cfi_endproc
 366               	.LFE20:
 368               		.section	.text.setRetransmitDelayCount,"ax",@progbits
 369               	.global	setRetransmitDelayCount
 371               	setRetransmitDelayCount:
 372               	.LFB21:
 107:../../lib/radio_control/radioctl.c **** 
 108:../../lib/radio_control/radioctl.c **** void setRetransmitDelayCount(uint8_t delay, uint8_t count){ 
 373               		.loc 1 108 0
 374               		.cfi_startproc
 375               	.LVL44:
 376 0000 CF93      		push r28
 377               	.LCFI10:
 378               		.cfi_def_cfa_offset 3
 379               		.cfi_offset 28, -2
 380 0002 DF93      		push r29
 381               	.LCFI11:
 382               		.cfi_def_cfa_offset 4
 383               		.cfi_offset 29, -3
 384               	/* prologue: function */
 385               	/* frame size = 0 */
 386               	/* stack size = 2 */
 387               	.L__stack_usage = 2
 109:../../lib/radio_control/radioctl.c ****   
 110:../../lib/radio_control/radioctl.c ****   // delay and count must be between 0 and F
 111:../../lib/radio_control/radioctl.c ****   uint16_t	delayCount;
 112:../../lib/radio_control/radioctl.c ****   delayCount = count + (delay << 4); 
 388               		.loc 1 112 0
 389 0004 90E1      		ldi r25,lo8(16)
 390 0006 899F      		mul r24,r25
 391 0008 E001      		movw r28,r0
 392 000a 1124      		clr __zero_reg__
 393 000c C60F      		add r28,r22
 394 000e D11D      		adc r29,__zero_reg__
 113:../../lib/radio_control/radioctl.c ****   openPort();
 395               		.loc 1 113 0
 396 0010 0E94 0000 		call openPort
 397               	.LVL45:
 114:../../lib/radio_control/radioctl.c ****   SPI_masterTransmit(0x04);
 398               		.loc 1 114 0
 399 0014 84E0      		ldi r24,lo8(4)
 400 0016 0E94 0000 		call SPI_masterTransmit
 401               	.LVL46:
 115:../../lib/radio_control/radioctl.c ****   SPI_masterTransmit(delayCount);
 402               		.loc 1 115 0
 403 001a 8C2F      		mov r24,r28
 404 001c 0E94 0000 		call SPI_masterTransmit
 405               	.LVL47:
 406               	/* epilogue start */
 116:../../lib/radio_control/radioctl.c ****   closePort();
 117:../../lib/radio_control/radioctl.c **** }
 407               		.loc 1 117 0
 408 0020 DF91      		pop r29
 409 0022 CF91      		pop r28
 116:../../lib/radio_control/radioctl.c ****   closePort();
 410               		.loc 1 116 0
 411 0024 0C94 0000 		jmp closePort
 412               	.LVL48:
 413               		.cfi_endproc
 414               	.LFE21:
 416               		.section	.text.setRadioRXPayloadSize,"ax",@progbits
 417               	.global	setRadioRXPayloadSize
 419               	setRadioRXPayloadSize:
 420               	.LFB22:
 118:../../lib/radio_control/radioctl.c **** 
 119:../../lib/radio_control/radioctl.c **** /***********************************************************
 120:../../lib/radio_control/radioctl.c ****   size is the number of bytes in PL from 1-32
 121:../../lib/radio_control/radioctl.c ****  ************************************************************/
 122:../../lib/radio_control/radioctl.c **** 
 123:../../lib/radio_control/radioctl.c **** void setRadioRXPayloadSize(uint8_t dataPipe, uint8_t size){
 421               		.loc 1 123 0
 422               		.cfi_startproc
 423               	.LVL49:
 424 0000 CF93      		push r28
 425               	.LCFI12:
 426               		.cfi_def_cfa_offset 3
 427               		.cfi_offset 28, -2
 428 0002 DF93      		push r29
 429               	.LCFI13:
 430               		.cfi_def_cfa_offset 4
 431               		.cfi_offset 29, -3
 432 0004 00D0      		rcall .
 433               	.LCFI14:
 434               		.cfi_def_cfa_offset 6
 435 0006 CDB7      		in r28,__SP_L__
 436 0008 DEB7      		in r29,__SP_H__
 437               	.LCFI15:
 438               		.cfi_def_cfa_register 28
 439               	/* prologue: function */
 440               	/* frame size = 2 */
 441               	/* stack size = 4 */
 442               	.L__stack_usage = 4
 124:../../lib/radio_control/radioctl.c **** 
 125:../../lib/radio_control/radioctl.c ****   openPort();
 443               		.loc 1 125 0
 444 000a 6A83      		std Y+2,r22
 445 000c 8983      		std Y+1,r24
 446 000e 0E94 0000 		call openPort
 447               	.LVL50:
 126:../../lib/radio_control/radioctl.c ****   SPI_masterTransmit(dataPipe | 0b00100000);  //address data pipe
 448               		.loc 1 126 0
 449 0012 8981      		ldd r24,Y+1
 450 0014 8062      		ori r24,lo8(32)
 451 0016 0E94 0000 		call SPI_masterTransmit
 452               	.LVL51:
 127:../../lib/radio_control/radioctl.c ****   SPI_masterTransmit(size);  // size of payload for data pipe
 453               		.loc 1 127 0
 454 001a 6A81      		ldd r22,Y+2
 455 001c 862F      		mov r24,r22
 456 001e 0E94 0000 		call SPI_masterTransmit
 457               	.LVL52:
 458               	/* epilogue start */
 128:../../lib/radio_control/radioctl.c ****   closePort();
 129:../../lib/radio_control/radioctl.c **** }
 459               		.loc 1 129 0
 460 0022 0F90      		pop __tmp_reg__
 461 0024 0F90      		pop __tmp_reg__
 462 0026 DF91      		pop r29
 463 0028 CF91      		pop r28
 128:../../lib/radio_control/radioctl.c ****   closePort();
 464               		.loc 1 128 0
 465 002a 0C94 0000 		jmp closePort
 466               	.LVL53:
 467               		.cfi_endproc
 468               	.LFE22:
 470               		.section	.text.setRadioTXPayload,"ax",@progbits
 471               	.global	setRadioTXPayload
 473               	setRadioTXPayload:
 474               	.LFB23:
 130:../../lib/radio_control/radioctl.c **** 
 131:../../lib/radio_control/radioctl.c **** void setRadioTXPayload(int8_t* frame, int8_t payloadSize){
 475               		.loc 1 131 0
 476               		.cfi_startproc
 477               	.LVL54:
 478 0000 EF92      		push r14
 479               	.LCFI16:
 480               		.cfi_def_cfa_offset 3
 481               		.cfi_offset 14, -2
 482 0002 FF92      		push r15
 483               	.LCFI17:
 484               		.cfi_def_cfa_offset 4
 485               		.cfi_offset 15, -3
 486 0004 0F93      		push r16
 487               	.LCFI18:
 488               		.cfi_def_cfa_offset 5
 489               		.cfi_offset 16, -4
 490 0006 1F93      		push r17
 491               	.LCFI19:
 492               		.cfi_def_cfa_offset 6
 493               		.cfi_offset 17, -5
 494 0008 CF93      		push r28
 495               	.LCFI20:
 496               		.cfi_def_cfa_offset 7
 497               		.cfi_offset 28, -6
 498 000a DF93      		push r29
 499               	.LCFI21:
 500               		.cfi_def_cfa_offset 8
 501               		.cfi_offset 29, -7
 502               	/* prologue: function */
 503               	/* frame size = 0 */
 504               	/* stack size = 6 */
 505               	.L__stack_usage = 6
 506 000c 8C01      		movw r16,r24
 507 000e E62E      		mov r14,r22
 132:../../lib/radio_control/radioctl.c **** 
 133:../../lib/radio_control/radioctl.c ****   openPort();
 508               		.loc 1 133 0
 509 0010 0E94 0000 		call openPort
 510               	.LVL55:
 134:../../lib/radio_control/radioctl.c ****   SPI_masterTransmit(0b10100000);  // Initiate writing of payload
 511               		.loc 1 134 0
 512 0014 80EA      		ldi r24,lo8(-96)
 513 0016 0E94 0000 		call SPI_masterTransmit
 514               	.LVL56:
 515               	.LBB2:
 135:../../lib/radio_control/radioctl.c ****   for(int i = 0; i < payloadSize; i++){
 516               		.loc 1 135 0
 517 001a E801      		movw r28,r16
 518 001c FF24      		clr r15
 519 001e E7FC      		sbrc r14,7
 520 0020 F094      		com r15
 521               	.LVL57:
 522               	.L17:
 523 0022 CE01      		movw r24,r28
 524 0024 801B      		sub r24,r16
 525 0026 910B      		sbc r25,r17
 526               		.loc 1 135 0 is_stmt 0 discriminator 1
 527 0028 8E15      		cp r24,r14
 528 002a 9F05      		cpc r25,r15
 529 002c 04F4      		brge .L19
 136:../../lib/radio_control/radioctl.c ****     SPI_masterTransmit(frame[i]);
 530               		.loc 1 136 0 is_stmt 1 discriminator 2
 531 002e 8991      		ld r24,Y+
 532               	.LVL58:
 533 0030 0E94 0000 		call SPI_masterTransmit
 534               	.LVL59:
 535 0034 00C0      		rjmp .L17
 536               	.L19:
 537               	/* epilogue start */
 538               	.LBE2:
 137:../../lib/radio_control/radioctl.c ****   }
 138:../../lib/radio_control/radioctl.c ****   closePort();
 139:../../lib/radio_control/radioctl.c **** }
 539               		.loc 1 139 0
 540 0036 DF91      		pop r29
 541 0038 CF91      		pop r28
 542               	.LVL60:
 543 003a 1F91      		pop r17
 544 003c 0F91      		pop r16
 545               	.LVL61:
 546 003e FF90      		pop r15
 547 0040 EF90      		pop r14
 548               	.LVL62:
 138:../../lib/radio_control/radioctl.c ****   closePort();
 549               		.loc 1 138 0
 550 0042 0C94 0000 		jmp closePort
 551               	.LVL63:
 552               		.cfi_endproc
 553               	.LFE23:
 555               		.section	.text.getRadioRXPayload,"ax",@progbits
 556               	.global	getRadioRXPayload
 558               	getRadioRXPayload:
 559               	.LFB24:
 140:../../lib/radio_control/radioctl.c **** 
 141:../../lib/radio_control/radioctl.c **** 
 142:../../lib/radio_control/radioctl.c **** void getRadioRXPayload(uint8_t* payload, uint8_t payloadSize){
 560               		.loc 1 142 0
 561               		.cfi_startproc
 562               	.LVL64:
 563 0000 EF92      		push r14
 564               	.LCFI22:
 565               		.cfi_def_cfa_offset 3
 566               		.cfi_offset 14, -2
 567 0002 FF92      		push r15
 568               	.LCFI23:
 569               		.cfi_def_cfa_offset 4
 570               		.cfi_offset 15, -3
 571 0004 0F93      		push r16
 572               	.LCFI24:
 573               		.cfi_def_cfa_offset 5
 574               		.cfi_offset 16, -4
 575 0006 1F93      		push r17
 576               	.LCFI25:
 577               		.cfi_def_cfa_offset 6
 578               		.cfi_offset 17, -5
 579 0008 CF93      		push r28
 580               	.LCFI26:
 581               		.cfi_def_cfa_offset 7
 582               		.cfi_offset 28, -6
 583 000a DF93      		push r29
 584               	.LCFI27:
 585               		.cfi_def_cfa_offset 8
 586               		.cfi_offset 29, -7
 587               	/* prologue: function */
 588               	/* frame size = 0 */
 589               	/* stack size = 6 */
 590               	.L__stack_usage = 6
 591 000c 8C01      		movw r16,r24
 592 000e E62E      		mov r14,r22
 143:../../lib/radio_control/radioctl.c **** 
 144:../../lib/radio_control/radioctl.c ****   uint8_t radioStatus;
 145:../../lib/radio_control/radioctl.c ****   openPort();
 593               		.loc 1 145 0
 594 0010 0E94 0000 		call openPort
 595               	.LVL65:
 146:../../lib/radio_control/radioctl.c ****   radioStatus = SPI_masterTransmit(0b01100001); //read payload 8 bytes
 596               		.loc 1 146 0
 597 0014 81E6      		ldi r24,lo8(97)
 598 0016 0E94 0000 		call SPI_masterTransmit
 599               	.LVL66:
 600               	.LBB3:
 147:../../lib/radio_control/radioctl.c ****   for(int i = 0; i<payloadSize; i++){
 601               		.loc 1 147 0
 602 001a E801      		movw r28,r16
 603 001c F12C      		mov r15,__zero_reg__
 604               	.LVL67:
 605               	.L21:
 606 001e CE01      		movw r24,r28
 607 0020 801B      		sub r24,r16
 608 0022 910B      		sbc r25,r17
 609               		.loc 1 147 0 is_stmt 0 discriminator 1
 610 0024 8E15      		cp r24,r14
 611 0026 9F05      		cpc r25,r15
 612 0028 04F4      		brge .L23
 148:../../lib/radio_control/radioctl.c **** 
 149:../../lib/radio_control/radioctl.c ****     payload[i] = SPI_masterReceive();
 613               		.loc 1 149 0 is_stmt 1 discriminator 2
 614 002a 0E94 0000 		call SPI_masterReceive
 615               	.LVL68:
 616 002e 8993      		st Y+,r24
 617               	.LVL69:
 618 0030 00C0      		rjmp .L21
 619               	.L23:
 620               	/* epilogue start */
 621               	.LBE3:
 150:../../lib/radio_control/radioctl.c ****   }
 151:../../lib/radio_control/radioctl.c ****   closePort();
 152:../../lib/radio_control/radioctl.c **** }
 622               		.loc 1 152 0
 623 0032 DF91      		pop r29
 624 0034 CF91      		pop r28
 625               	.LVL70:
 626 0036 1F91      		pop r17
 627 0038 0F91      		pop r16
 628               	.LVL71:
 629 003a FF90      		pop r15
 630 003c EF90      		pop r14
 631               	.LVL72:
 151:../../lib/radio_control/radioctl.c ****   closePort();
 632               		.loc 1 151 0
 633 003e 0C94 0000 		jmp closePort
 634               	.LVL73:
 635               		.cfi_endproc
 636               	.LFE24:
 638               		.section	.text.getRadioStatus,"ax",@progbits
 639               	.global	getRadioStatus
 641               	getRadioStatus:
 642               	.LFB25:
 153:../../lib/radio_control/radioctl.c **** 
 154:../../lib/radio_control/radioctl.c **** 
 155:../../lib/radio_control/radioctl.c **** void getRadioStatus(uint8_t* status){
 643               		.loc 1 155 0
 644               		.cfi_startproc
 645               	.LVL74:
 646 0000 CF93      		push r28
 647               	.LCFI28:
 648               		.cfi_def_cfa_offset 3
 649               		.cfi_offset 28, -2
 650 0002 DF93      		push r29
 651               	.LCFI29:
 652               		.cfi_def_cfa_offset 4
 653               		.cfi_offset 29, -3
 654               	/* prologue: function */
 655               	/* frame size = 0 */
 656               	/* stack size = 2 */
 657               	.L__stack_usage = 2
 658 0004 EC01      		movw r28,r24
 156:../../lib/radio_control/radioctl.c **** 
 157:../../lib/radio_control/radioctl.c ****   openPort();
 659               		.loc 1 157 0
 660 0006 0E94 0000 		call openPort
 661               	.LVL75:
 158:../../lib/radio_control/radioctl.c ****   *status = SPI_masterTransmit(0x07);  // RX_ADDR_P0 register, radioStatus now == status
 662               		.loc 1 158 0
 663 000a 87E0      		ldi r24,lo8(7)
 664 000c 0E94 0000 		call SPI_masterTransmit
 665               	.LVL76:
 666 0010 8883      		st Y,r24
 667               	/* epilogue start */
 159:../../lib/radio_control/radioctl.c ****   closePort();
 160:../../lib/radio_control/radioctl.c **** }
 668               		.loc 1 160 0
 669 0012 DF91      		pop r29
 670 0014 CF91      		pop r28
 671               	.LVL77:
 159:../../lib/radio_control/radioctl.c ****   closePort();
 672               		.loc 1 159 0
 673 0016 0C94 0000 		jmp closePort
 674               	.LVL78:
 675               		.cfi_endproc
 676               	.LFE25:
 678               		.section	.text.getRX_DR,"ax",@progbits
 679               	.global	getRX_DR
 681               	getRX_DR:
 682               	.LFB26:
 161:../../lib/radio_control/radioctl.c **** 
 162:../../lib/radio_control/radioctl.c **** /**************************************************
 163:../../lib/radio_control/radioctl.c ****   Boolean valued functions. return 1 if bit
 164:../../lib/radio_control/radioctl.c ****   is set, else returns 0 
 165:../../lib/radio_control/radioctl.c ****  ***************************************************/
 166:../../lib/radio_control/radioctl.c **** 
 167:../../lib/radio_control/radioctl.c **** uint8_t getRX_DR(){
 683               		.loc 1 167 0
 684               		.cfi_startproc
 685 0000 CF93      		push r28
 686               	.LCFI30:
 687               		.cfi_def_cfa_offset 3
 688               		.cfi_offset 28, -2
 689 0002 DF93      		push r29
 690               	.LCFI31:
 691               		.cfi_def_cfa_offset 4
 692               		.cfi_offset 29, -3
 693 0004 1F92      		push __zero_reg__
 694               	.LCFI32:
 695               		.cfi_def_cfa_offset 5
 696 0006 CDB7      		in r28,__SP_L__
 697 0008 DEB7      		in r29,__SP_H__
 698               	.LCFI33:
 699               		.cfi_def_cfa_register 28
 700               	/* prologue: function */
 701               	/* frame size = 1 */
 702               	/* stack size = 3 */
 703               	.L__stack_usage = 3
 168:../../lib/radio_control/radioctl.c **** 
 169:../../lib/radio_control/radioctl.c ****   uint8_t status;
 170:../../lib/radio_control/radioctl.c ****   getRadioStatus(&status);
 704               		.loc 1 170 0
 705 000a CE01      		movw r24,r28
 706 000c 0196      		adiw r24,1
 707 000e 0E94 0000 		call getRadioStatus
 708               	.LVL79:
 171:../../lib/radio_control/radioctl.c ****   if(status & (1<<6))  // if RX_DR is set
 709               		.loc 1 171 0
 710 0012 8981      		ldd r24,Y+1
 172:../../lib/radio_control/radioctl.c ****     return 1;
 173:../../lib/radio_control/radioctl.c ****   else
 174:../../lib/radio_control/radioctl.c ****     return 0;
 175:../../lib/radio_control/radioctl.c **** }
 711               		.loc 1 175 0
 712 0014 86FB      		bst r24,6
 713 0016 8827      		clr r24
 714 0018 80F9      		bld r24,0
 715               	/* epilogue start */
 716 001a 0F90      		pop __tmp_reg__
 717 001c DF91      		pop r29
 718 001e CF91      		pop r28
 719 0020 0895      		ret
 720               		.cfi_endproc
 721               	.LFE26:
 723               		.section	.text.getTX_DS,"ax",@progbits
 724               	.global	getTX_DS
 726               	getTX_DS:
 727               	.LFB27:
 176:../../lib/radio_control/radioctl.c **** 
 177:../../lib/radio_control/radioctl.c **** uint8_t getTX_DS(){
 728               		.loc 1 177 0
 729               		.cfi_startproc
 730 0000 CF93      		push r28
 731               	.LCFI34:
 732               		.cfi_def_cfa_offset 3
 733               		.cfi_offset 28, -2
 734 0002 DF93      		push r29
 735               	.LCFI35:
 736               		.cfi_def_cfa_offset 4
 737               		.cfi_offset 29, -3
 738 0004 1F92      		push __zero_reg__
 739               	.LCFI36:
 740               		.cfi_def_cfa_offset 5
 741 0006 CDB7      		in r28,__SP_L__
 742 0008 DEB7      		in r29,__SP_H__
 743               	.LCFI37:
 744               		.cfi_def_cfa_register 28
 745               	/* prologue: function */
 746               	/* frame size = 1 */
 747               	/* stack size = 3 */
 748               	.L__stack_usage = 3
 178:../../lib/radio_control/radioctl.c **** 
 179:../../lib/radio_control/radioctl.c ****   uint8_t status;
 180:../../lib/radio_control/radioctl.c ****   getRadioStatus(&status);
 749               		.loc 1 180 0
 750 000a CE01      		movw r24,r28
 751 000c 0196      		adiw r24,1
 752 000e 0E94 0000 		call getRadioStatus
 753               	.LVL80:
 181:../../lib/radio_control/radioctl.c ****   if(status & (1<<5))  
 754               		.loc 1 181 0
 755 0012 8981      		ldd r24,Y+1
 182:../../lib/radio_control/radioctl.c ****     return 1;
 183:../../lib/radio_control/radioctl.c ****   else
 184:../../lib/radio_control/radioctl.c ****     return 0;
 185:../../lib/radio_control/radioctl.c **** }
 756               		.loc 1 185 0
 757 0014 85FB      		bst r24,5
 758 0016 8827      		clr r24
 759 0018 80F9      		bld r24,0
 760               	/* epilogue start */
 761 001a 0F90      		pop __tmp_reg__
 762 001c DF91      		pop r29
 763 001e CF91      		pop r28
 764 0020 0895      		ret
 765               		.cfi_endproc
 766               	.LFE27:
 768               		.section	.text.getMAX_RT,"ax",@progbits
 769               	.global	getMAX_RT
 771               	getMAX_RT:
 772               	.LFB28:
 186:../../lib/radio_control/radioctl.c **** 
 187:../../lib/radio_control/radioctl.c **** uint8_t getMAX_RT(){
 773               		.loc 1 187 0
 774               		.cfi_startproc
 775 0000 CF93      		push r28
 776               	.LCFI38:
 777               		.cfi_def_cfa_offset 3
 778               		.cfi_offset 28, -2
 779 0002 DF93      		push r29
 780               	.LCFI39:
 781               		.cfi_def_cfa_offset 4
 782               		.cfi_offset 29, -3
 783 0004 1F92      		push __zero_reg__
 784               	.LCFI40:
 785               		.cfi_def_cfa_offset 5
 786 0006 CDB7      		in r28,__SP_L__
 787 0008 DEB7      		in r29,__SP_H__
 788               	.LCFI41:
 789               		.cfi_def_cfa_register 28
 790               	/* prologue: function */
 791               	/* frame size = 1 */
 792               	/* stack size = 3 */
 793               	.L__stack_usage = 3
 188:../../lib/radio_control/radioctl.c **** 
 189:../../lib/radio_control/radioctl.c ****   uint8_t status;
 190:../../lib/radio_control/radioctl.c ****   getRadioStatus(&status);
 794               		.loc 1 190 0
 795 000a CE01      		movw r24,r28
 796 000c 0196      		adiw r24,1
 797 000e 0E94 0000 		call getRadioStatus
 798               	.LVL81:
 191:../../lib/radio_control/radioctl.c ****   if(status & (1<<4))  
 799               		.loc 1 191 0
 800 0012 8981      		ldd r24,Y+1
 192:../../lib/radio_control/radioctl.c ****     return 1;
 193:../../lib/radio_control/radioctl.c ****   else
 194:../../lib/radio_control/radioctl.c ****     return 0;
 195:../../lib/radio_control/radioctl.c **** }
 801               		.loc 1 195 0
 802 0014 8295      		swap r24
 803 0016 8170      		andi r24,1
 804               	/* epilogue start */
 805 0018 0F90      		pop __tmp_reg__
 806 001a DF91      		pop r29
 807 001c CF91      		pop r28
 808 001e 0895      		ret
 809               		.cfi_endproc
 810               	.LFE28:
 812               		.section	.text.getTX_FULL,"ax",@progbits
 813               	.global	getTX_FULL
 815               	getTX_FULL:
 816               	.LFB29:
 196:../../lib/radio_control/radioctl.c **** 
 197:../../lib/radio_control/radioctl.c **** uint8_t getTX_FULL(){
 817               		.loc 1 197 0
 818               		.cfi_startproc
 819 0000 CF93      		push r28
 820               	.LCFI42:
 821               		.cfi_def_cfa_offset 3
 822               		.cfi_offset 28, -2
 823 0002 DF93      		push r29
 824               	.LCFI43:
 825               		.cfi_def_cfa_offset 4
 826               		.cfi_offset 29, -3
 827 0004 1F92      		push __zero_reg__
 828               	.LCFI44:
 829               		.cfi_def_cfa_offset 5
 830 0006 CDB7      		in r28,__SP_L__
 831 0008 DEB7      		in r29,__SP_H__
 832               	.LCFI45:
 833               		.cfi_def_cfa_register 28
 834               	/* prologue: function */
 835               	/* frame size = 1 */
 836               	/* stack size = 3 */
 837               	.L__stack_usage = 3
 198:../../lib/radio_control/radioctl.c **** 
 199:../../lib/radio_control/radioctl.c ****   uint8_t status;
 200:../../lib/radio_control/radioctl.c ****   getRadioStatus(&status);
 838               		.loc 1 200 0
 839 000a CE01      		movw r24,r28
 840 000c 0196      		adiw r24,1
 841 000e 0E94 0000 		call getRadioStatus
 842               	.LVL82:
 201:../../lib/radio_control/radioctl.c ****   if(status & (1<<0))  
 843               		.loc 1 201 0
 844 0012 8981      		ldd r24,Y+1
 202:../../lib/radio_control/radioctl.c ****     return 1;
 203:../../lib/radio_control/radioctl.c ****   else
 204:../../lib/radio_control/radioctl.c ****     return 0;
 205:../../lib/radio_control/radioctl.c **** }
 845               		.loc 1 205 0
 846 0014 8170      		andi r24,lo8(1)
 847               	/* epilogue start */
 848 0016 0F90      		pop __tmp_reg__
 849 0018 DF91      		pop r29
 850 001a CF91      		pop r28
 851 001c 0895      		ret
 852               		.cfi_endproc
 853               	.LFE29:
 855               		.section	.text.clearMAX_RT,"ax",@progbits
 856               	.global	clearMAX_RT
 858               	clearMAX_RT:
 859               	.LFB30:
 206:../../lib/radio_control/radioctl.c **** 
 207:../../lib/radio_control/radioctl.c **** /*********** Clear Status Bits **************/
 208:../../lib/radio_control/radioctl.c **** 
 209:../../lib/radio_control/radioctl.c **** void clearMAX_RT(){
 860               		.loc 1 209 0
 861               		.cfi_startproc
 862               	/* prologue: function */
 863               	/* frame size = 0 */
 864               	/* stack size = 0 */
 865               	.L__stack_usage = 0
 210:../../lib/radio_control/radioctl.c **** 
 211:../../lib/radio_control/radioctl.c ****   uint8_t status;
 212:../../lib/radio_control/radioctl.c ****   openPort();
 866               		.loc 1 212 0
 867 0000 0E94 0000 		call openPort
 868               	.LVL83:
 213:../../lib/radio_control/radioctl.c ****   status = SPI_masterTransmit(0x07 | 0b00100000);  
 869               		.loc 1 213 0
 870 0004 87E2      		ldi r24,lo8(39)
 871 0006 0E94 0000 		call SPI_masterTransmit
 872               	.LVL84:
 214:../../lib/radio_control/radioctl.c ****   SPI_masterTransmit(status |= (1<<4));
 873               		.loc 1 214 0
 874 000a 8061      		ori r24,lo8(16)
 875               	.LVL85:
 876 000c 0E94 0000 		call SPI_masterTransmit
 877               	.LVL86:
 215:../../lib/radio_control/radioctl.c ****   closePort();
 878               		.loc 1 215 0
 879 0010 0C94 0000 		jmp closePort
 880               	.LVL87:
 881               		.cfi_endproc
 882               	.LFE30:
 884               		.section	.text.clearTX_DS,"ax",@progbits
 885               	.global	clearTX_DS
 887               	clearTX_DS:
 888               	.LFB31:
 216:../../lib/radio_control/radioctl.c **** }
 217:../../lib/radio_control/radioctl.c **** 
 218:../../lib/radio_control/radioctl.c **** void clearTX_DS(){
 889               		.loc 1 218 0
 890               		.cfi_startproc
 891               	/* prologue: function */
 892               	/* frame size = 0 */
 893               	/* stack size = 0 */
 894               	.L__stack_usage = 0
 219:../../lib/radio_control/radioctl.c **** 
 220:../../lib/radio_control/radioctl.c ****   uint8_t status;
 221:../../lib/radio_control/radioctl.c ****   openPort();
 895               		.loc 1 221 0
 896 0000 0E94 0000 		call openPort
 897               	.LVL88:
 222:../../lib/radio_control/radioctl.c ****   status = SPI_masterTransmit(0x07 | 0b00100000);  
 898               		.loc 1 222 0
 899 0004 87E2      		ldi r24,lo8(39)
 900 0006 0E94 0000 		call SPI_masterTransmit
 901               	.LVL89:
 223:../../lib/radio_control/radioctl.c ****   SPI_masterTransmit(status |= (1<<5));
 902               		.loc 1 223 0
 903 000a 8062      		ori r24,lo8(32)
 904               	.LVL90:
 905 000c 0E94 0000 		call SPI_masterTransmit
 906               	.LVL91:
 224:../../lib/radio_control/radioctl.c ****   closePort();
 907               		.loc 1 224 0
 908 0010 0C94 0000 		jmp closePort
 909               	.LVL92:
 910               		.cfi_endproc
 911               	.LFE31:
 913               		.section	.text.clearRX_DR,"ax",@progbits
 914               	.global	clearRX_DR
 916               	clearRX_DR:
 917               	.LFB32:
 225:../../lib/radio_control/radioctl.c **** }
 226:../../lib/radio_control/radioctl.c **** 
 227:../../lib/radio_control/radioctl.c **** void clearRX_DR(){
 918               		.loc 1 227 0
 919               		.cfi_startproc
 920               	/* prologue: function */
 921               	/* frame size = 0 */
 922               	/* stack size = 0 */
 923               	.L__stack_usage = 0
 228:../../lib/radio_control/radioctl.c **** 
 229:../../lib/radio_control/radioctl.c ****   uint8_t status;
 230:../../lib/radio_control/radioctl.c ****   openPort();
 924               		.loc 1 230 0
 925 0000 0E94 0000 		call openPort
 926               	.LVL93:
 231:../../lib/radio_control/radioctl.c ****   status = SPI_masterTransmit(0x07 | 0b00100000); 
 927               		.loc 1 231 0
 928 0004 87E2      		ldi r24,lo8(39)
 929 0006 0E94 0000 		call SPI_masterTransmit
 930               	.LVL94:
 232:../../lib/radio_control/radioctl.c ****   SPI_masterTransmit(status |= (1<<6));  //reset receive bit
 931               		.loc 1 232 0
 932 000a 8064      		ori r24,lo8(64)
 933               	.LVL95:
 934 000c 0E94 0000 		call SPI_masterTransmit
 935               	.LVL96:
 233:../../lib/radio_control/radioctl.c ****   closePort();
 936               		.loc 1 233 0
 937 0010 0C94 0000 		jmp closePort
 938               	.LVL97:
 939               		.cfi_endproc
 940               	.LFE32:
 942               		.text
 943               	.Letext0:
 944               		.file 2 "/usr/local/CrossPack-AVR-20131216/avr/include/stdint.h"
 945               		.file 3 "../../lib/radio_control/../spi/spi.h"